target datalayout = "e-m:e-p270:32:32-p271:32:32-p272:64:64-i64:64-i128:128-f80:128-n8:16:32:64-S128"
target triple = "x86_64-pc-linux-gnu"

@.str.14 = private unnamed_addr constant [46 x i8] c"error running query (%s) on source server: %s\00", align 1
@.str.15 = private unnamed_addr constant [33 x i8] c"unexpected result set from query\00", align 1

; Function Attrs: nounwind uwtable
define internal ptr @run_simple_query(ptr noundef %0, ptr noundef %1) #0 {
  %3 = alloca ptr, align 8
  %4 = alloca ptr, align 8
  %5 = alloca ptr, align 8
  %6 = alloca ptr, align 8
  store ptr %0, ptr %3, align 8
  store ptr %1, ptr %4, align 8
  call void @llvm.lifetime.start.p0(i64 8, ptr %5) #10
  call void @llvm.lifetime.start.p0(i64 8, ptr %6) #10
  %7 = load ptr, ptr %3, align 8
  %8 = load ptr, ptr %4, align 8
  %9 = call ptr @PQexec(ptr noundef %7, ptr noundef %8)
  store ptr %9, ptr %5, align 8
  %10 = load ptr, ptr %5, align 8
  %11 = call i32 @PQresultStatus(ptr noundef %10)
  %12 = icmp ne i32 %11, 2
  br i1 %12, label %13, label %20

13:                                               ; preds = %2
  br label %14

14:                                               ; preds = %13
  %15 = load ptr, ptr %4, align 8
  %16 = load ptr, ptr %5, align 8
  %17 = call ptr @PQresultErrorMessage(ptr noundef %16)
  call void (i32, i32, ptr, ...) @pg_log_generic(i32 noundef 4, i32 noundef 0, ptr noundef @.str.14, ptr noundef %15, ptr noundef %17)
  call void @exit(i32 noundef 1) #11
  unreachable

18:                                               ; No predecessors!
  br label %19

19:                                               ; preds = %18
  br label %20

20:                                               ; preds = %19, %2
  %21 = load ptr, ptr %5, align 8
  %22 = call i32 @PQnfields(ptr noundef %21)
  %23 = icmp ne i32 %22, 1
  br i1 %23, label %32, label %24

24:                                               ; preds = %20
  %25 = load ptr, ptr %5, align 8
  %26 = call i32 @PQntuples(ptr noundef %25)
  %27 = icmp ne i32 %26, 1
  br i1 %27, label %32, label %28

28:                                               ; preds = %24
  %29 = load ptr, ptr %5, align 8
  %30 = call i32 @PQgetisnull(ptr noundef %29, i32 noundef 0, i32 noundef 0)
  %31 = icmp ne i32 %30, 0
  br i1 %31, label %32, label %36

32:                                               ; preds = %28, %24, %20
  br label %33

33:                                               ; preds = %32
  call void (i32, i32, ptr, ...) @pg_log_generic(i32 noundef 4, i32 noundef 0, ptr noundef @.str.15)
  call void @exit(i32 noundef 1) #11
  unreachable

34:                                               ; No predecessors!
  br label %35

35:                                               ; preds = %34
  br label %36

36:                                               ; preds = %35, %28
  %37 = load ptr, ptr %5, align 8
  %38 = call ptr @PQgetvalue(ptr noundef %37, i32 noundef 0, i32 noundef 0)
  %39 = call ptr @pg_strdup(ptr noundef %38)
  store ptr %39, ptr %6, align 8
  %40 = load ptr, ptr %5, align 8
  call void @PQclear(ptr noundef %40)
  %41 = load ptr, ptr %6, align 8
  call void @llvm.lifetime.end.p0(i64 8, ptr %6) #10
  call void @llvm.lifetime.end.p0(i64 8, ptr %5) #10
  ret ptr %41
}