; Function Attrs: nounwind uwtable
define internal fastcc ptr @run_simple_query(ptr noundef %0, ptr noundef %1) unnamed_addr #0 {
  %3 = tail call ptr @PQexec(ptr noundef %0, ptr noundef %1) #10
  %4 = tail call i32 @PQresultStatus(ptr noundef %3) #10
  %.not = icmp eq i32 %4, 2
  br i1 %.not, label %7, label %5

5:                                                ; preds = %2
  %6 = tail call ptr @PQresultErrorMessage(ptr noundef %3) #10
  tail call void (i32, i32, ptr, ...) @pg_log_generic(i32 noundef 4, i32 noundef 0, ptr noundef nonnull @.str.14, ptr noundef %1, ptr noundef %6) #10
  tail call void @exit(i32 noundef 1) #11
  unreachable

7:                                                ; preds = %2
  %8 = tail call i32 @PQnfields(ptr noundef %3) #10
  %.not11 = icmp eq i32 %8, 1
  br i1 %.not11, label %9, label %13

9:                                                ; preds = %7
  %10 = tail call i32 @PQntuples(ptr noundef %3) #10
  %.not12 = icmp eq i32 %10, 1
  br i1 %.not12, label %11, label %13

11:                                               ; preds = %9
  %12 = tail call i32 @PQgetisnull(ptr noundef %3, i32 noundef 0, i32 noundef 0) #10
  %.not13 = icmp eq i32 %12, 0
  br i1 %.not13, label %14, label %13

13:                                               ; preds = %7, %9, %11
  tail call void (i32, i32, ptr, ...) @pg_log_generic(i32 noundef 4, i32 noundef 0, ptr noundef nonnull @.str.15) #10
  tail call void @exit(i32 noundef 1) #11
  unreachable

14:                                               ; preds = %11
  %15 = tail call ptr @PQgetvalue(ptr noundef %3, i32 noundef 0, i32 noundef 0) #10
  %16 = tail call ptr @pg_strdup(ptr noundef %15) #10
  tail call void @PQclear(ptr noundef %3) #10
  ret ptr %16
}